#include <math.h>
#include <stdio.h>
#include <stdlib.h>
#include <string.h>

int main(){
    char a[510],d[510];
    int i,e;
    double bl,k;
    scanf("%lf",&k);
    scanf("%s",a);
    scanf("%s",d);
    e=0;
    int len1=strlen(a);
    int len2=strlen(d);
    if(len1!=len2){
        printf("error");
    }else{
    for(i=0;i<len1;i++){
        if(a[i]!='A'&&a[i]!='T'&&a[i]!='G'&&a[i]!='C'){
            printf("error");
            return 0;
        }
        if(d[i]!='A'&&d[i]!='T'&&d[i]!='C'&&d[i]!='G'){
            printf("error");
            return 0;
        }
        else{
            if(a[i]==d[i]){
                e++;
            }
        }
    }
    bl=1.0*e/len1;
    if(bl>k){
        printf("yes");
    }else{
        printf("no");
    }
    }return 0;
}
